; Function Attrs: nounwind uwtable
define internal void @lock_thread(ptr noundef %0) #0 {
  %2 = getelementptr inbounds nuw i8, ptr %0, i64 4
  store atomic i32 1, ptr %2 seq_cst, align 4
  %3 = cmpxchg ptr %0, i8 0, i8 1 seq_cst seq_cst, align 1
  %4 = extractvalue { i8, i1 } %3, 1
  br i1 %4, label %_PyMutex_Lock.exit, label %5

5:                                                ; preds = %1
  tail call void @PyMutex_Lock(ptr noundef nonnull %0) #6
  br label %_PyMutex_Lock.exit

_PyMutex_Lock.exit:                               ; preds = %1, %5
  %6 = load i8, ptr %0, align 1, !tbaa !3
  %7 = icmp eq i8 %6, 1
  br i1 %7, label %9, label %8

8:                                                ; preds = %_PyMutex_Lock.exit
  tail call void @__assert_fail(ptr noundef nonnull @.str.17, ptr noundef nonnull @.str.11, i32 noundef 60, ptr noundef nonnull @__PRETTY_FUNCTION__.lock_thread) #7
  unreachable

9:                                                ; preds = %_PyMutex_Lock.exit
  %10 = cmpxchg ptr %0, i8 1, i8 0 seq_cst seq_cst, align 1
  %11 = extractvalue { i8, i1 } %10, 1
  br i1 %11, label %_PyMutex_Unlock.exit, label %12

12:                                               ; preds = %9
  tail call void @PyMutex_Unlock(ptr noundef nonnull %0) #6
  br label %_PyMutex_Unlock.exit

_PyMutex_Unlock.exit:                             ; preds = %9, %12
  %13 = load i8, ptr %0, align 1, !tbaa !3
  %14 = icmp eq i8 %13, 0
  br i1 %14, label %16, label %15

15:                                               ; preds = %_PyMutex_Unlock.exit
  tail call void @__assert_fail(ptr noundef nonnull @.str.18, ptr noundef nonnull @.str.11, i32 noundef 63, ptr noundef nonnull @__PRETTY_FUNCTION__.lock_thread) #7
  unreachable

16:                                               ; preds = %_PyMutex_Unlock.exit
  %17 = getelementptr inbounds nuw i8, ptr %0, i64 1
  tail call void @_PyEvent_Notify(ptr noundef nonnull %17) #6
  ret void
}